target datalayout = "e-m:e-p270:32:32-p271:32:32-p272:64:64-i64:64-i128:128-f80:128-n8:16:32:64-S128"
target triple = "x86_64-pc-linux-gnu"

%"class.open3d::utility::ISAInfo" = type { %"class.std::unique_ptr" }
%"class.std::unique_ptr" = type { %"struct.std::__uniq_ptr_data" }
%"struct.std::__uniq_ptr_data" = type { %"class.std::__uniq_ptr_impl" }
%"class.std::__uniq_ptr_impl" = type { %"class.std::tuple" }
%"class.std::tuple" = type { %"struct.std::_Tuple_impl" }
%"struct.std::_Tuple_impl" = type { %"struct.std::_Head_base.1" }
%"struct.std::_Head_base.1" = type { ptr }

@_ZZN6open3d7utility7ISAInfo11GetInstanceEvE8instance = internal global %"class.open3d::utility::ISAInfo" zeroinitializer, align 8
@_ZGVZN6open3d7utility7ISAInfo11GetInstanceEvE8instance = internal global i64 0, align 8
@__dso_handle = external hidden global i8
@_ZN6open3d7utility7ISAInfoC1Ev = unnamed_addr alias void (ptr), ptr @_ZN6open3d7utility7ISAInfoC2Ev

; Function Attrs: mustprogress ssp uwtable
define noundef nonnull align 8 dereferenceable(8) ptr @_ZN6open3d7utility7ISAInfo11GetInstanceEv() #0 align 2 personality ptr @__gxx_personality_v0 {
  %1 = alloca ptr, align 8
  %2 = alloca i32, align 4
  %3 = load atomic i8, ptr @_ZGVZN6open3d7utility7ISAInfo11GetInstanceEvE8instance acquire, align 8
  %4 = icmp eq i8 %3, 0
  br i1 %4, label %5, label %11, !prof !37

5:                                                ; preds = %0
  %6 = call i32 @__cxa_guard_acquire(ptr @_ZGVZN6open3d7utility7ISAInfo11GetInstanceEvE8instance) #8
  %7 = icmp ne i32 %6, 0
  br i1 %7, label %8, label %11

8:                                                ; preds = %5
  invoke void @_ZN6open3d7utility7ISAInfoC1Ev(ptr noundef nonnull align 8 dereferenceable(8) @_ZZN6open3d7utility7ISAInfo11GetInstanceEvE8instance)
          to label %9 unwind label %12

9:                                                ; preds = %8
  %10 = call i32 @__cxa_atexit(ptr @_ZN6open3d7utility7ISAInfoD2Ev, ptr @_ZZN6open3d7utility7ISAInfo11GetInstanceEvE8instance, ptr @__dso_handle) #8
  call void @__cxa_guard_release(ptr @_ZGVZN6open3d7utility7ISAInfo11GetInstanceEvE8instance) #8
  br label %11

11:                                               ; preds = %9, %5, %0
  ret ptr @_ZZN6open3d7utility7ISAInfo11GetInstanceEvE8instance

12:                                               ; preds = %8
  %13 = landingpad { ptr, i32 }
          cleanup
  %14 = extractvalue { ptr, i32 } %13, 0
  store ptr %14, ptr %1, align 8
  %15 = extractvalue { ptr, i32 } %13, 1
  store i32 %15, ptr %2, align 4
  call void @__cxa_guard_abort(ptr @_ZGVZN6open3d7utility7ISAInfo11GetInstanceEvE8instance) #8
  br label %16

16:                                               ; preds = %12
  %17 = load ptr, ptr %1, align 8
  %18 = load i32, ptr %2, align 4
  %19 = insertvalue { ptr, i32 } poison, ptr %17, 0
  %20 = insertvalue { ptr, i32 } %19, i32 %18, 1
  resume { ptr, i32 } %20
}